target datalayout = "e-m:e-p270:32:32-p271:32:32-p272:64:64-i64:64-i128:128-f80:128-n8:16:32:64-S128"
target triple = "x86_64-pc-linux-gnu"

%struct.PROV_SEED_SRC = type { ptr, i32 }

@.str = private unnamed_addr constant [54 x i8] c"../openssl/providers/implementations/rands/seed_src.c\00", align 1
@__func__.seed_src_generate = private unnamed_addr constant [18 x i8] c"seed_src_generate\00", align 1

; Function Attrs: nounwind uwtable
define internal i32 @seed_src_generate(ptr noundef %0, ptr noundef %1, i64 noundef %2, i32 noundef %3, i32 noundef %4, ptr noundef %5, i64 noundef %6) #0 {
  %8 = alloca i32, align 4
  %9 = alloca ptr, align 8
  %10 = alloca ptr, align 8
  %11 = alloca i64, align 8
  %12 = alloca i32, align 4
  %13 = alloca i32, align 4
  %14 = alloca ptr, align 8
  %15 = alloca i64, align 8
  %16 = alloca ptr, align 8
  %17 = alloca i64, align 8
  %18 = alloca ptr, align 8
  %19 = alloca i32, align 4
  store ptr %0, ptr %9, align 8, !tbaa !3
  store ptr %1, ptr %10, align 8, !tbaa !14
  store i64 %2, ptr %11, align 8, !tbaa !16
  store i32 %3, ptr %12, align 4, !tbaa !13
  store i32 %4, ptr %13, align 4, !tbaa !13
  store ptr %5, ptr %14, align 8, !tbaa !14
  store i64 %6, ptr %15, align 8, !tbaa !16
  call void @llvm.lifetime.start.p0(i64 8, ptr %16) #4
  %20 = load ptr, ptr %9, align 8, !tbaa !3
  store ptr %20, ptr %16, align 8, !tbaa !3
  call void @llvm.lifetime.start.p0(i64 8, ptr %17) #4
  call void @llvm.lifetime.start.p0(i64 8, ptr %18) #4
  %21 = load ptr, ptr %16, align 8, !tbaa !3
  %22 = getelementptr inbounds nuw %struct.PROV_SEED_SRC, ptr %21, i32 0, i32 1
  %23 = load i32, ptr %22, align 8, !tbaa !12
  %24 = icmp ne i32 %23, 1
  br i1 %24, label %25, label %31

25:                                               ; preds = %7
  call void @ERR_new()
  call void @ERR_set_debug(ptr noundef @.str, i32 noundef 101, ptr noundef @__func__.seed_src_generate)
  %26 = load ptr, ptr %16, align 8, !tbaa !3
  %27 = getelementptr inbounds nuw %struct.PROV_SEED_SRC, ptr %26, i32 0, i32 1
  %28 = load i32, ptr %27, align 8, !tbaa !12
  %29 = icmp eq i32 %28, 2
  %30 = select i1 %29, i32 192, i32 193
  call void (i32, i32, ptr, ...) @ERR_set_error(i32 noundef 57, i32 noundef %30, ptr noundef null)
  store i32 0, ptr %8, align 4
  store i32 1, ptr %19, align 4
  br label %63

31:                                               ; preds = %7
  %32 = load i32, ptr %12, align 4, !tbaa !13
  %33 = load i64, ptr %11, align 8, !tbaa !16
  %34 = load i64, ptr %11, align 8, !tbaa !16
  %35 = call ptr @ossl_rand_pool_new(i32 noundef %32, i32 noundef 1, i64 noundef %33, i64 noundef %34)
  store ptr %35, ptr %18, align 8, !tbaa !20
  %36 = load ptr, ptr %18, align 8, !tbaa !20
  %37 = icmp eq ptr %36, null
  br i1 %37, label %38, label %39

38:                                               ; preds = %31
  call void @ERR_new()
  call void @ERR_set_debug(ptr noundef @.str, i32 noundef 107, ptr noundef @__func__.seed_src_generate)
  call void (i32, i32, ptr, ...) @ERR_set_error(i32 noundef 57, i32 noundef 524324, ptr noundef null)
  store i32 0, ptr %8, align 4
  store i32 1, ptr %19, align 4
  br label %63

39:                                               ; preds = %31
  %40 = load ptr, ptr %18, align 8, !tbaa !20
  %41 = call i64 @ossl_pool_acquire_entropy(ptr noundef %40)
  store i64 %41, ptr %17, align 8, !tbaa !16
  %42 = load i64, ptr %17, align 8, !tbaa !16
  %43 = icmp ugt i64 %42, 0
  br i1 %43, label %44, label %58

44:                                               ; preds = %39
  %45 = load ptr, ptr %18, align 8, !tbaa !20
  %46 = load ptr, ptr %14, align 8, !tbaa !14
  %47 = load i64, ptr %15, align 8, !tbaa !16
  %48 = call i32 @ossl_rand_pool_adin_mix_in(ptr noundef %45, ptr noundef %46, i64 noundef %47)
  %49 = icmp ne i32 %48, 0
  br i1 %49, label %52, label %50

50:                                               ; preds = %44
  %51 = load ptr, ptr %18, align 8, !tbaa !20
  call void @ossl_rand_pool_free(ptr noundef %51)
  store i32 0, ptr %8, align 4
  store i32 1, ptr %19, align 4
  br label %63

52:                                               ; preds = %44
  %53 = load ptr, ptr %10, align 8, !tbaa !14
  %54 = load ptr, ptr %18, align 8, !tbaa !20
  %55 = call ptr @ossl_rand_pool_buffer(ptr noundef %54)
  %56 = load ptr, ptr %18, align 8, !tbaa !20
  %57 = call i64 @ossl_rand_pool_length(ptr noundef %56)
  call void @llvm.memcpy.p0.p0.i64(ptr align 1 %53, ptr align 1 %55, i64 %57, i1 false)
  br label %58

58:                                               ; preds = %52, %39
  %59 = load ptr, ptr %18, align 8, !tbaa !20
  call void @ossl_rand_pool_free(ptr noundef %59)
  %60 = load i64, ptr %17, align 8, !tbaa !16
  %61 = icmp ugt i64 %60, 0
  %62 = zext i1 %61 to i32
  store i32 %62, ptr %8, align 4
  store i32 1, ptr %19, align 4
  br label %63

63:                                               ; preds = %58, %50, %38, %25
  call void @llvm.lifetime.end.p0(i64 8, ptr %18) #4
  call void @llvm.lifetime.end.p0(i64 8, ptr %17) #4
  call void @llvm.lifetime.end.p0(i64 8, ptr %16) #4
  %64 = load i32, ptr %8, align 4
  ret i32 %64
}