; Function Attrs: nounwind uwtable
define internal range(i32 0, 2) i32 @seed_src_generate(ptr noundef readonly captures(none) %0, ptr noundef writeonly captures(none) %1, i64 noundef %2, i32 noundef %3, i32 %4, ptr noundef %5, i64 noundef %6) #0 {
  %8 = getelementptr inbounds nuw i8, ptr %0, i64 8
  %9 = load i32, ptr %8, align 8, !tbaa !9
  %.not = icmp eq i32 %9, 1
  br i1 %.not, label %14, label %10

10:                                               ; preds = %7
  tail call void @ERR_new() #5
  tail call void @ERR_set_debug(ptr noundef nonnull @.str, i32 noundef 101, ptr noundef nonnull @__func__.seed_src_generate) #5
  %11 = load i32, ptr %8, align 8, !tbaa !9
  %12 = icmp eq i32 %11, 2
  %13 = select i1 %12, i32 192, i32 193
  tail call void (i32, i32, ptr, ...) @ERR_set_error(i32 noundef 57, i32 noundef %13, ptr noundef null) #5
  br label %29

14:                                               ; preds = %7
  %15 = tail call ptr @ossl_rand_pool_new(i32 noundef %3, i32 noundef 1, i64 noundef %2, i64 noundef %2) #5
  %16 = icmp eq ptr %15, null
  br i1 %16, label %17, label %18

17:                                               ; preds = %14
  tail call void @ERR_new() #5
  tail call void @ERR_set_debug(ptr noundef nonnull @.str, i32 noundef 107, ptr noundef nonnull @__func__.seed_src_generate) #5
  tail call void (i32, i32, ptr, ...) @ERR_set_error(i32 noundef 57, i32 noundef 524324, ptr noundef null) #5
  br label %29

18:                                               ; preds = %14
  %19 = tail call i64 @ossl_pool_acquire_entropy(ptr noundef nonnull %15) #5
  %20 = icmp ne i64 %19, 0
  br i1 %20, label %21, label %27

21:                                               ; preds = %18
  %22 = tail call i32 @ossl_rand_pool_adin_mix_in(ptr noundef nonnull %15, ptr noundef %5, i64 noundef %6) #5
  %.not19 = icmp eq i32 %22, 0
  br i1 %.not19, label %23, label %24

23:                                               ; preds = %21
  tail call void @ossl_rand_pool_free(ptr noundef nonnull %15) #5
  br label %29

24:                                               ; preds = %21
  %25 = tail call ptr @ossl_rand_pool_buffer(ptr noundef nonnull %15) #5
  %26 = tail call i64 @ossl_rand_pool_length(ptr noundef nonnull %15) #5
  tail call void @llvm.memcpy.p0.p0.i64(ptr align 1 %1, ptr align 1 %25, i64 %26, i1 false)
  br label %27

27:                                               ; preds = %24, %18
  tail call void @ossl_rand_pool_free(ptr noundef nonnull %15) #5
  %28 = zext i1 %20 to i32
  br label %29

29:                                               ; preds = %27, %23, %17, %10
  %.0 = phi i32 [ 0, %10 ], [ 0, %17 ], [ %28, %27 ], [ 0, %23 ]
  ret i32 %.0
}